; Function Attrs: mustprogress nofree norecurse nosync nounwind willreturn memory(read, inaccessiblemem: none) uwtable
define internal noundef zeroext i1 @"_ZNSt17_Function_handlerIFbPN3mbp4termEEZNS0_10term_graph9get_termsER10ref_vectorI4expr11ast_managerEbE3$_0E9_M_invokeERKSt9_Any_dataOS2_"(ptr nonnull readnone align 8 captures(none) %0, ptr noundef nonnull readonly align 8 captures(none) dereferenceable(8) %1) #8 align 2 {
  %.val = load ptr, ptr %1, align 8, !tbaa !46
  %3 = getelementptr i8, ptr %.val, i64 40
  %.val.val = load i16, ptr %3, align 8
  %4 = and i16 %.val.val, 384
  %or.cond.not.i.i.i = icmp eq i16 %4, 0
  br i1 %or.cond.not.i.i.i, label %5, label %"_ZSt10__invoke_rIbRZN3mbp10term_graph9get_termsER10ref_vectorI4expr11ast_managerEbE3$_0JPNS0_4termEEENSt9enable_ifIX16is_invocable_r_vIT_T0_DpT1_EESC_E4typeEOSD_DpOSE_.exit"

5:                                                ; preds = %2
  %6 = and i16 %.val.val, 72
  %.not.i.i.i = icmp eq i16 %6, 0
  br i1 %.not.i.i.i, label %7, label %"_ZSt10__invoke_rIbRZN3mbp10term_graph9get_termsER10ref_vectorI4expr11ast_managerEbE3$_0JPNS0_4termEEENSt9enable_ifIX16is_invocable_r_vIT_T0_DpT1_EESC_E4typeEOSD_DpOSE_.exit"

7:                                                ; preds = %5
  %8 = and i16 %.val.val, 512
  %.not2.i.i.i = icmp eq i16 %8, 0
  br label %"_ZSt10__invoke_rIbRZN3mbp10term_graph9get_termsER10ref_vectorI4expr11ast_managerEbE3$_0JPNS0_4termEEENSt9enable_ifIX16is_invocable_r_vIT_T0_DpT1_EESC_E4typeEOSD_DpOSE_.exit"

"_ZSt10__invoke_rIbRZN3mbp10term_graph9get_termsER10ref_vectorI4expr11ast_managerEbE3$_0JPNS0_4termEEENSt9enable_ifIX16is_invocable_r_vIT_T0_DpT1_EESC_E4typeEOSD_DpOSE_.exit": ; preds = %2, %5, %7
  %9 = phi i1 [ false, %2 ], [ true, %5 ], [ %.not2.i.i.i, %7 ]
  ret i1 %9
}